target datalayout = "e-m:e-p270:32:32-p271:32:32-p272:64:64-i64:64-i128:128-f80:128-n8:16:32:64-S128"
target triple = "x86_64-pc-linux-gnu"

%struct.TCGContext = type { ptr, ptr, ptr, ptr, ptr, i32, i32, i32, i32, i32, i32, i32, i8, i8, i8, i32, i32, i64, i64, i64, ptr, ptr, ptr, ptr, ptr, i64, ptr, ptr, ptr, ptr, %struct.anon, ptr, ptr, ptr, ptr, ptr, [6 x ptr], [6 x %struct.TCGTempSet], [512 x %struct.TCGTemp], %union.anon, %union.anon, %struct.anon.0, ptr, [32 x ptr], [512 x i16], ptr, [1 x %struct.__jmp_buf_tag] }
%struct.anon = type { ptr, ptr }
%struct.TCGTempSet = type { [8 x i64] }
%struct.TCGTemp = type { i64, i64, ptr, i64, ptr, i64, ptr }
%union.anon = type { %struct.QTailQLink }
%struct.QTailQLink = type { ptr, ptr }
%struct.anon.0 = type { ptr, ptr }
%struct.__jmp_buf_tag = type { [8 x i64], i32, %struct.__sigset_t }
%struct.__sigset_t = type { [16 x i64] }
%struct.TranslationBlock = type { i64, i64, i32, i32, i16, i16, %struct.tb_tc, %struct.IntervalTreeNode, %struct.QemuSpin, [2 x i16], [2 x i16], [2 x i64], i64, [2 x i64], [2 x i64] }
%struct.tb_tc = type { ptr, i64 }
%struct.IntervalTreeNode = type { %struct.RBNode, i64, i64, i64 }
%struct.RBNode = type { i64, ptr, ptr }
%struct.QemuSpin = type { i32 }

@qemu_icache_linesize = external global i32, align 4

; Function Attrs: nounwind sspstrong uwtable
define dso_local ptr @tcg_tb_alloc(ptr noundef %0) #0 {
  %2 = alloca ptr, align 8
  %3 = alloca ptr, align 8
  %4 = alloca i64, align 8
  %5 = alloca ptr, align 8
  %6 = alloca ptr, align 8
  %7 = alloca i32, align 4
  %8 = alloca ptr, align 8
  store ptr %0, ptr %3, align 8
  call void @llvm.lifetime.start.p0(i64 8, ptr %4) #19
  %9 = load i32, ptr @qemu_icache_linesize, align 4
  %10 = sext i32 %9 to i64
  store i64 %10, ptr %4, align 8
  call void @llvm.lifetime.start.p0(i64 8, ptr %5) #19
  store ptr null, ptr %5, align 8, !annotation !4
  call void @llvm.lifetime.start.p0(i64 8, ptr %6) #19
  store ptr null, ptr %6, align 8, !annotation !4
  br label %11

11:                                               ; preds = %48, %1
  %12 = load ptr, ptr %3, align 8
  %13 = getelementptr inbounds nuw %struct.TCGContext, ptr %12, i32 0, i32 26
  %14 = load ptr, ptr %13, align 8
  %15 = ptrtoint ptr %14 to i64
  %16 = load i64, ptr %4, align 8
  %17 = add i64 %15, %16
  %18 = sub i64 %17, 1
  %19 = load i64, ptr %4, align 8
  %20 = sub i64 0, %19
  %21 = and i64 %18, %20
  %22 = inttoptr i64 %21 to ptr
  store ptr %22, ptr %5, align 8
  %23 = load ptr, ptr %5, align 8
  %24 = getelementptr inbounds %struct.TranslationBlock, ptr %23, i64 1
  %25 = ptrtoint ptr %24 to i64
  %26 = load i64, ptr %4, align 8
  %27 = add i64 %25, %26
  %28 = sub i64 %27, 1
  %29 = load i64, ptr %4, align 8
  %30 = sub i64 0, %29
  %31 = and i64 %28, %30
  %32 = inttoptr i64 %31 to ptr
  store ptr %32, ptr %6, align 8
  %33 = load ptr, ptr %6, align 8
  %34 = load ptr, ptr %3, align 8
  %35 = getelementptr inbounds nuw %struct.TCGContext, ptr %34, i32 0, i32 28
  %36 = load ptr, ptr %35, align 8
  %37 = icmp ugt ptr %33, %36
  %38 = xor i1 %37, true
  %39 = xor i1 %38, true
  %40 = zext i1 %39 to i32
  %41 = sext i32 %40 to i64
  %42 = call i64 @llvm.expect.i64(i64 %41, i64 0)
  %43 = icmp ne i64 %42, 0
  br i1 %43, label %44, label %49

44:                                               ; preds = %11
  %45 = load ptr, ptr %3, align 8
  %46 = call zeroext i1 @tcg_region_alloc(ptr noundef %45)
  br i1 %46, label %47, label %48

47:                                               ; preds = %44
  store ptr null, ptr %2, align 8
  store i32 1, ptr %7, align 4
  br label %61

48:                                               ; preds = %44
  br label %11

49:                                               ; preds = %11
  br label %50

50:                                               ; preds = %49
  br label %51

51:                                               ; preds = %50
  br i1 false, label %52, label %53

52:                                               ; preds = %51
  call void @qemu_build_not_reached_always() #20, !srcloc !13
  unreachable

53:                                               ; preds = %51
  %54 = load ptr, ptr %3, align 8
  %55 = getelementptr inbounds nuw %struct.TCGContext, ptr %54, i32 0, i32 26
  %56 = load ptr, ptr %6, align 8
  store ptr %56, ptr %8, align 8
  %57 = load i64, ptr %8, align 8
  store atomic i64 %57, ptr %55 monotonic, align 8
  br label %58

58:                                               ; preds = %53
  br label %59

59:                                               ; preds = %58
  %60 = load ptr, ptr %5, align 8
  store ptr %60, ptr %2, align 8
  store i32 1, ptr %7, align 4
  br label %61

61:                                               ; preds = %59, %47
  call void @llvm.lifetime.end.p0(i64 8, ptr %6) #19
  call void @llvm.lifetime.end.p0(i64 8, ptr %5) #19
  call void @llvm.lifetime.end.p0(i64 8, ptr %4) #19
  %62 = load ptr, ptr %2, align 8
  ret ptr %62
}