; Function Attrs: nounwind sspstrong uwtable
define dso_local ptr @tcg_tb_alloc(ptr noundef %0) local_unnamed_addr #0 {
  %2 = load i32, ptr @qemu_icache_linesize, align 4
  %3 = sext i32 %2 to i64
  %4 = getelementptr inbounds nuw i8, ptr %0, i64 152
  %5 = add nsw i64 %3, -1
  %6 = sub nsw i64 0, %3
  %7 = getelementptr inbounds nuw i8, ptr %0, i64 168
  br label %8

8:                                                ; preds = %21, %1
  %9 = load ptr, ptr %4, align 8
  %10 = ptrtoint ptr %9 to i64
  %11 = add i64 %5, %10
  %12 = and i64 %11, %6
  %13 = inttoptr i64 %12 to ptr
  %14 = getelementptr inbounds nuw i8, ptr %13, i64 168
  %15 = ptrtoint ptr %14 to i64
  %16 = add i64 %5, %15
  %17 = and i64 %16, %6
  %18 = inttoptr i64 %17 to ptr
  %19 = load ptr, ptr %7, align 8
  %20 = icmp ult ptr %19, %18
  br i1 %20, label %21, label %23, !prof !4

21:                                               ; preds = %8
  %22 = tail call zeroext i1 @tcg_region_alloc(ptr noundef nonnull %0) #30
  br i1 %22, label %.loopexit, label %8

23:                                               ; preds = %8
  store atomic i64 %17, ptr %4 monotonic, align 8
  br label %.loopexit

.loopexit:                                        ; preds = %21, %23
  %.0 = phi ptr [ %13, %23 ], [ null, %21 ]
  ret ptr %.0
}